(dp0
Vengine
p1
Vxelatex
p2
sVpackages
p3
c__builtin__
set
p4
((lp5
tp6
Rp7
sVfiles_with_guttermarks
p8
g4
((lp9
V/Users/veitprogl/Documents/Git/CV/CV copy/./coverletter.tex
p10
aS'coverletter.tex'
p11
atp12
Rp13
sVsynctex
p14
I01
s.